; Function Attrs: nounwind uwtable
define internal void @Wayland_remove_all_pens_callback(i32 %0, ptr noundef %1, ptr readnone captures(none) %2) #0 {
  %4 = getelementptr inbounds nuw i8, ptr %1, i64 32
  %5 = load ptr, ptr %4, align 8
  %6 = load ptr, ptr @WAYLAND_wl_proxy_marshal_flags, align 8
  %7 = load ptr, ptr @WAYLAND_wl_proxy_get_version, align 8
  %8 = tail call i32 %7(ptr noundef %5) #12
  %9 = tail call ptr (ptr, i32, ptr, i32, i32, ...) %6(ptr noundef %5, i32 noundef 1, ptr noundef null, i32 noundef %8, i32 noundef 1) #12
  tail call void @SDL_free_REAL(ptr noundef %1) #12
  ret void
}